; Function Attrs: nounwind uwtable
define zeroext range(i8 0, 2) i8 @l_Lean_Compiler_LCNF_allFVarM___at_Lean_Compiler_LCNF_Specialize_shouldSpecialize___spec__2(ptr noundef %0, ptr noundef %1) local_unnamed_addr #0 {
  tail call void @lean_inc_heartbeat() #4
  %3 = tail call noalias ptr @mi_malloc_small(i64 noundef 32) #4
  %4 = icmp eq ptr %3, null
  br i1 %4, label %5, label %lean_alloc_closure.exit

5:                                                ; preds = %2
  tail call void @lean_internal_panic_out_of_memory() #5
  unreachable

lean_alloc_closure.exit:                          ; preds = %2
  %6 = getelementptr inbounds nuw i8, ptr %3, i64 4
  store i32 1, ptr %3, align 4, !tbaa !8
  store i32 -184549344, ptr %6, align 4
  %7 = getelementptr inbounds nuw i8, ptr %3, i64 8
  store ptr @l_Lean_Compiler_LCNF_allFVarM_go___at_Lean_Compiler_LCNF_allFVar___spec__2, ptr %7, align 8, !tbaa !4
  %8 = getelementptr inbounds nuw i8, ptr %3, i64 16
  store i16 2, ptr %8, align 8, !tbaa !16
  %9 = getelementptr inbounds nuw i8, ptr %3, i64 18
  store i16 1, ptr %9, align 2, !tbaa !16
  %10 = getelementptr inbounds nuw i8, ptr %3, i64 24
  store ptr %0, ptr %10, align 8, !tbaa !4
  %11 = tail call ptr @l_Lean_Compiler_LCNF_Arg_forFVarM___at_Lean_Compiler_LCNF_Specialize_withLetDecl___spec__4(ptr noundef nonnull %3, ptr noundef %1)
  %12 = ptrtoint ptr %11 to i64
  %13 = and i64 %12, 1
  %.not.i8 = icmp eq i64 %13, 0
  br i1 %.not.i8, label %lean_obj_tag.exit.thread, label %lean_obj_tag.exit

lean_obj_tag.exit:                                ; preds = %lean_alloc_closure.exit
  %14 = and i64 %12, 8589934590
  %15 = icmp ne i64 %14, 0
  %spec.select = zext i1 %15 to i8
  br label %lean_dec.exit

lean_obj_tag.exit.thread:                         ; preds = %lean_alloc_closure.exit
  %16 = getelementptr i8, ptr %11, i64 4
  %.val.i = load i32, ptr %16, align 4
  %17 = icmp ult i32 %.val.i, 16777216
  br i1 %17, label %lean_dec.exit, label %.thread

.thread:                                          ; preds = %lean_obj_tag.exit.thread
  %18 = load i32, ptr %11, align 4, !tbaa !8
  %19 = icmp sgt i32 %18, 1
  br i1 %19, label %20, label %22, !prof !11

20:                                               ; preds = %.thread
  %21 = add nsw i32 %18, -1
  store i32 %21, ptr %11, align 4, !tbaa !8
  br label %lean_dec.exit

22:                                               ; preds = %.thread
  %.not.i = icmp eq i32 %18, 0
  br i1 %.not.i, label %lean_dec.exit, label %23

23:                                               ; preds = %22
  tail call void @lean_dec_ref_cold(ptr noundef nonnull %11) #4
  br label %lean_dec.exit

lean_dec.exit:                                    ; preds = %lean_obj_tag.exit, %20, %22, %23, %lean_obj_tag.exit.thread
  %.0 = phi i8 [ 0, %lean_obj_tag.exit.thread ], [ 1, %23 ], [ 1, %22 ], [ 1, %20 ], [ %spec.select, %lean_obj_tag.exit ]
  ret i8 %.0
}